target datalayout = "e-m:e-p270:32:32-p271:32:32-p272:64:64-i64:64-i128:128-f80:128-n8:16:32:64-S128"
target triple = "x86_64-pc-linux-gnu"

; Function Attrs: nounwind uwtable
define ptr @zend_hash_add_or_update(ptr noundef %0, ptr noundef %1, ptr noundef %2, i32 noundef %3) #0 {
  %5 = alloca ptr, align 8
  %6 = alloca ptr, align 8
  %7 = alloca ptr, align 8
  %8 = alloca ptr, align 8
  %9 = alloca i32, align 4
  store ptr %0, ptr %6, align 8
  store ptr %1, ptr %7, align 8
  store ptr %2, ptr %8, align 8
  store i32 %3, ptr %9, align 4
  %10 = load i32, ptr %9, align 4
  %11 = icmp eq i32 %10, 2
  br i1 %11, label %12, label %17

12:                                               ; preds = %4
  %13 = load ptr, ptr %6, align 8
  %14 = load ptr, ptr %7, align 8
  %15 = load ptr, ptr %8, align 8
  %16 = call ptr @zend_hash_add(ptr noundef %13, ptr noundef %14, ptr noundef %15)
  store ptr %16, ptr %5, align 8
  br label %40

17:                                               ; preds = %4
  %18 = load i32, ptr %9, align 4
  %19 = icmp eq i32 %18, 8
  br i1 %19, label %20, label %25

20:                                               ; preds = %17
  %21 = load ptr, ptr %6, align 8
  %22 = load ptr, ptr %7, align 8
  %23 = load ptr, ptr %8, align 8
  %24 = call ptr @zend_hash_add_new(ptr noundef %21, ptr noundef %22, ptr noundef %23)
  store ptr %24, ptr %5, align 8
  br label %40

25:                                               ; preds = %17
  %26 = load i32, ptr %9, align 4
  %27 = icmp eq i32 %26, 1
  br i1 %27, label %28, label %33

28:                                               ; preds = %25
  %29 = load ptr, ptr %6, align 8
  %30 = load ptr, ptr %7, align 8
  %31 = load ptr, ptr %8, align 8
  %32 = call ptr @zend_hash_update(ptr noundef %29, ptr noundef %30, ptr noundef %31)
  store ptr %32, ptr %5, align 8
  br label %40

33:                                               ; preds = %25
  %34 = load i32, ptr %9, align 4
  %35 = icmp eq i32 %34, 5
  call void @llvm.assume(i1 %35)
  %36 = load ptr, ptr %6, align 8
  %37 = load ptr, ptr %7, align 8
  %38 = load ptr, ptr %8, align 8
  %39 = call ptr @zend_hash_update_ind(ptr noundef %36, ptr noundef %37, ptr noundef %38)
  store ptr %39, ptr %5, align 8
  br label %40

40:                                               ; preds = %33, %28, %20, %12
  %41 = load ptr, ptr %5, align 8
  ret ptr %41
}