; Function Attrs: nounwind uwtable
define noundef ptr @zend_hash_add_or_update(ptr noundef %0, ptr noundef %1, ptr noundef %2, i32 noundef %3) local_unnamed_addr #0 {
  switch i32 %3, label %11 [
    i32 2, label %5
    i32 8, label %7
    i32 1, label %9
  ]

5:                                                ; preds = %4
  %6 = tail call ptr @zend_hash_add(ptr noundef %0, ptr noundef %1, ptr noundef %2)
  br label %14

7:                                                ; preds = %4
  %8 = tail call ptr @zend_hash_add_new(ptr noundef %0, ptr noundef %1, ptr noundef %2)
  br label %14

9:                                                ; preds = %4
  %10 = tail call ptr @zend_hash_update(ptr noundef %0, ptr noundef %1, ptr noundef %2)
  br label %14

11:                                               ; preds = %4
  %12 = icmp eq i32 %3, 5
  tail call void @llvm.assume(i1 %12)
  %13 = tail call ptr @zend_hash_update_ind(ptr noundef %0, ptr noundef %1, ptr noundef %2)
  br label %14

14:                                               ; preds = %11, %9, %7, %5
  %.0 = phi ptr [ %6, %5 ], [ %8, %7 ], [ %10, %9 ], [ %13, %11 ]
  ret ptr %.0
}